; Function Attrs: mustprogress uwtable
define internal fastcc void @_ZN12_GLOBAL__N_110InfoWriter15MakeStringArrayISt6vectorINSt7__cxx1112basic_stringIcSt11char_traitsIcESaIcEEESaIS8_EEEEvRN4Json5ValueERKT_(ptr noundef nonnull align 8 dereferenceable(40) %0, ptr nocapture noundef nonnull readonly align 8 dereferenceable(24) %1) unnamed_addr #3 align 2 personality ptr @__gxx_personality_v0 {
  %3 = alloca %"class.Json::Value", align 8
  %4 = alloca %"class.Json::Value", align 8
  call void @llvm.lifetime.start.p0(i64 40, ptr nonnull %3)
  call void @_ZN4Json5ValueC1ENS_9ValueTypeE(ptr noundef nonnull align 8 dereferenceable(40) %3, i32 noundef 6)
  %5 = call noundef nonnull align 8 dereferenceable(40) ptr @_ZN4Json5ValueaSEOS0_(ptr noundef nonnull align 8 dereferenceable(40) %0, ptr noundef nonnull align 8 dereferenceable(40) %3) #21
  call void @_ZN4Json5ValueD1Ev(ptr noundef nonnull align 8 dereferenceable(40) %3) #21
  %6 = getelementptr inbounds i8, ptr %1, i64 8
  %7 = load ptr, ptr %6, align 8
  %8 = load ptr, ptr %1, align 8
  %.not = icmp eq ptr %7, %8
  br i1 %.not, label %_ZN12_GLOBAL__N_110InfoWriter9MakeArrayISt6vectorINSt7__cxx1112basic_stringIcSt11char_traitsIcESaIcEEESaIS8_EEEEbRN4Json5ValueERKT_.exit, label %9

_ZN12_GLOBAL__N_110InfoWriter9MakeArrayISt6vectorINSt7__cxx1112basic_stringIcSt11char_traitsIcESaIcEEESaIS8_EEEEbRN4Json5ValueERKT_.exit: ; preds = %2
  call void @llvm.lifetime.end.p0(i64 40, ptr nonnull %3)
  br label %.loopexit

9:                                                ; preds = %2
  %10 = ptrtoint ptr %8 to i64
  %11 = ptrtoint ptr %7 to i64
  %12 = sub i64 %11, %10
  %13 = lshr exact i64 %12, 5
  %14 = trunc i64 %13 to i32
  call void @_ZN4Json5Value6resizeEj(ptr noundef nonnull align 8 dereferenceable(40) %0, i32 noundef %14)
  call void @llvm.lifetime.end.p0(i64 40, ptr nonnull %3)
  %15 = load ptr, ptr %1, align 8
  %16 = load ptr, ptr %6, align 8
  %.not1213 = icmp eq ptr %15, %16
  br i1 %.not1213, label %.loopexit, label %.lr.ph

.lr.ph:                                           ; preds = %9, %18
  %.015 = phi i32 [ %19, %18 ], [ 0, %9 ]
  %.sroa.09.014 = phi ptr [ %21, %18 ], [ %15, %9 ]
  call void @_ZN4Json5ValueC1ERKNSt7__cxx1112basic_stringIcSt11char_traitsIcESaIcEEE(ptr noundef nonnull align 8 dereferenceable(40) %4, ptr noundef nonnull align 8 dereferenceable(32) %.sroa.09.014)
  %17 = invoke noundef nonnull align 8 dereferenceable(40) ptr @_ZN4Json5ValueixEj(ptr noundef nonnull align 8 dereferenceable(40) %0, i32 noundef %.015)
          to label %18 unwind label %22

18:                                               ; preds = %.lr.ph
  %19 = add i32 %.015, 1
  %20 = call noundef nonnull align 8 dereferenceable(40) ptr @_ZN4Json5ValueaSEOS0_(ptr noundef nonnull align 8 dereferenceable(40) %17, ptr noundef nonnull align 8 dereferenceable(40) %4) #21
  call void @_ZN4Json5ValueD1Ev(ptr noundef nonnull align 8 dereferenceable(40) %4) #21
  %21 = getelementptr inbounds i8, ptr %.sroa.09.014, i64 32
  %.not12 = icmp eq ptr %21, %16
  br i1 %.not12, label %.loopexit, label %.lr.ph

22:                                               ; preds = %.lr.ph
  %23 = landingpad { ptr, i32 }
          cleanup
  call void @_ZN4Json5ValueD1Ev(ptr noundef nonnull align 8 dereferenceable(40) %4) #21
  resume { ptr, i32 } %23

.loopexit:                                        ; preds = %18, %9, %_ZN12_GLOBAL__N_110InfoWriter9MakeArrayISt6vectorINSt7__cxx1112basic_stringIcSt11char_traitsIcESaIcEEESaIS8_EEEEbRN4Json5ValueERKT_.exit
  ret void
}